; Function Attrs: mustprogress uwtable
define void @vzone_writeSimple_77(ptr noundef nonnull %0, double noundef %1, ptr noundef nonnull writeonly align 8 captures(none) dereferenceable(8) %2, ptr noundef nonnull align 4 captures(none) dereferenceable(4) %3, ptr noundef nonnull align 4 dereferenceable(4) %4) local_unnamed_addr #0 personality ptr @__gxx_personality_v0 {
  %6 = alloca %"class.icu_77::UnicodeString", align 8
  call void @llvm.lifetime.start.p0(i64 64, ptr nonnull %6) #7
  store ptr getelementptr inbounds nuw inrange(-16, 88) (i8, ptr @_ZTVN6icu_7713UnicodeStringE, i64 16), ptr %6, align 8, !tbaa !10
  %7 = getelementptr inbounds nuw i8, ptr %6, i64 8
  store i16 2, ptr %7, align 8, !tbaa !12
  invoke void @_ZNK6icu_779VTimeZone11writeSimpleEdRNS_13UnicodeStringER10UErrorCode(ptr noundef nonnull align 8 dereferenceable(288) %0, double noundef %1, ptr noundef nonnull align 8 dereferenceable(64) %6, ptr noundef nonnull align 4 dereferenceable(4) %4)
          to label %8 unwind label %30

8:                                                ; preds = %5
  %9 = load i16, ptr %7, align 8, !tbaa !12
  %10 = icmp slt i16 %9, 0
  %11 = ashr i16 %9, 5
  %12 = sext i16 %11 to i32
  %13 = getelementptr inbounds nuw i8, ptr %6, i64 12
  %14 = load i32, ptr %13, align 4
  %15 = select i1 %10, i32 %14, i32 %12
  store i32 %15, ptr %3, align 4, !tbaa !13
  %16 = sext i32 %15 to i64
  %17 = invoke noalias ptr @uprv_malloc_77(i64 noundef %16) #8
          to label %18 unwind label %30

18:                                               ; preds = %8
  store ptr %17, ptr %2, align 8, !tbaa !15
  %19 = load i16, ptr %7, align 8, !tbaa !12
  %20 = and i16 %19, 17
  %.not.i = icmp eq i16 %20, 0
  br i1 %.not.i, label %21, label %_ZNK6icu_7713UnicodeString9getBufferEv.exit

21:                                               ; preds = %18
  %22 = and i16 %19, 2
  %.not2.i = icmp eq i16 %22, 0
  br i1 %.not2.i, label %25, label %23

23:                                               ; preds = %21
  %24 = getelementptr inbounds nuw i8, ptr %6, i64 10
  br label %_ZNK6icu_7713UnicodeString9getBufferEv.exit

25:                                               ; preds = %21
  %26 = getelementptr inbounds nuw i8, ptr %6, i64 24
  %27 = load ptr, ptr %26, align 8, !tbaa !12
  br label %_ZNK6icu_7713UnicodeString9getBufferEv.exit

_ZNK6icu_7713UnicodeString9getBufferEv.exit:      ; preds = %18, %23, %25
  %.0.i = phi ptr [ %24, %23 ], [ %27, %25 ], [ null, %18 ]
  %28 = load i32, ptr %3, align 4, !tbaa !13
  %29 = sext i32 %28 to i64
  call void @llvm.memcpy.p0.p0.i64(ptr align 2 %17, ptr align 2 %.0.i, i64 %29, i1 false)
  call void @_ZN6icu_7713UnicodeStringD1Ev(ptr noundef nonnull align 8 dereferenceable(64) %6) #7
  call void @llvm.lifetime.end.p0(i64 64, ptr nonnull %6) #7
  ret void

30:                                               ; preds = %8, %5
  %31 = landingpad { ptr, i32 }
          cleanup
  call void @_ZN6icu_7713UnicodeStringD1Ev(ptr noundef nonnull align 8 dereferenceable(64) %6) #7
  call void @llvm.lifetime.end.p0(i64 64, ptr nonnull %6) #7
  resume { ptr, i32 } %31
}